Certificate:
    Data:
        Version: 3 (0x2)
        Serial Number: 1 (0x1)
    Signature Algorithm: sha256WithRSAEncryption
        Issuer: C=GB, CN=OpenRDAP test root
        Validity
            Not Before: Apr 21 17:24:41 2018 GMT
            Not After : Jan 18 17:24:41 2028 GMT
        Subject: C=GB, CN=OpenRDAP test client certificate
        Subject Public Key Info:
            Public Key Algorithm: rsaEncryption
                Public-Key: (2048 bit)
                Modulus:
                    00:b6:76:a7:11:3e:58:31:c5:8b:2d:b4:bf:ac:1a:
                    a9:f7:0d:22:96:2f:57:f6:f1:40:2c:2f:54:6e:52:
                    35:62:fb:c3:43:8b:9a:9f:29:6a:be:2f:ac:e1:01:
                    48:dd:bc:91:68:73:7f:b4:e3:e2:41:45:32:fc:e1:
                    28:2a:a9:67:8f:db:27:0f:74:f0:05:2c:6f:98:e8:
                    19:ca:87:d4:2c:9d:39:2d:3b:bf:13:72:5f:7b:ca:
                    28:e9:cb:68:d2:17:83:4e:8e:12:80:13:5d:72:1a:
                    9f:8f:95:47:de:28:23:b9:99:a9:79:7e:10:ff:dc:
                    86:7e:7f:6a:5e:89:f4:d8:15:53:85:fc:a0:2e:11:
                    8f:b5:d0:57:54:21:96:9b:fb:a5:2d:3a:97:52:4e:
                    19:8c:20:89:20:0a:49:b4:29:77:dc:6a:d3:7b:9b:
                    15:3e:2e:3d:e3:f7:1d:5d:3a:07:22:67:bf:8c:af:
                    0f:48:9a:2e:54:ca:96:82:ae:52:b6:d1:aa:98:2a:
                    9f:1a:53:d0:03:5e:c5:55:55:30:cc:62:e6:54:a5:
                    2f:bb:4f:51:0d:64:4d:1d:11:c0:ba:c3:f3:a9:6e:
                    3e:81:01:d3:54:97:fd:cd:0a:83:c7:d0:ad:ba:00:
                    ab:88:f7:48:47:ec:1d:a1:b4:b7:79:9b:61:b9:e9:
                    db:35
                Exponent: 65537 (0x10001)
        X509v3 extensions:
            X509v3 Authority Key Identifier: 
                keyid:8C:7E:96:F0:2B:43:F6:65:40:DF:91:64:EB:0F:16:00:BD:0D:38:0F

            X509v3 Basic Constraints: 
                CA:FALSE
            X509v3 Key Usage: 
                Digital Signature
            X509v3 Extended Key Usage: 
                TLS Web Client Authentication
    Signature Algorithm: sha256WithRSAEncryption
         ad:9a:2e:28:1e:c6:a2:95:51:53:bb:f9:53:cc:1f:3d:e5:df:
         3a:c5:f2:74:1e:56:2a:4f:62:64:1b:5c:12:c2:11:bc:2e:50:
         ee:48:e8:5b:40:f8:17:5e:49:af:de:b3:8b:32:da:42:33:d7:
         1d:39:2f:29:93:95:7a:4e:37:ad:cb:f6:1e:ba:18:c0:55:07:
         f1:5b:02:68:08:25:67:4d:41:44:5c:c0:c6:d6:5d:e5:26:d3:
         30:f6:f0:a0:cd:cd:2a:18:db:5c:59:1b:79:df:29:33:e4:f5:
         28:08:fc:9b:7f:64:74:27:01:5c:e9:ed:ef:37:b9:10:70:b7:
         f9:22:08:76:02:63:43:94:06:c6:21:44:e2:7e:5a:78:ce:5e:
         86:f9:0d:ee:3a:3d:b5:42:11:d4:83:ed:32:b5:81:da:64:f9:
         4a:3b:e9:20:b3:18:70:4d:57:11:ed:4e:b8:98:88:03:2a:b1:
         06:96:f3:0d:da:92:5a:0f:63:1d:f7:b7:03:9e:0f:7c:c8:5c:
         8c:f4:01:ae:08:58:47:02:5a:44:b6:c9:db:c2:fa:ae:61:6d:
         4f:90:6d:67:2f:66:33:ae:32:72:4f:b9:8a:6c:06:83:e3:2e:
         71:45:ee:27:37:0e:5d:95:39:7e:7f:9a:9a:19:f2:98:2a:80:
         b5:4d:eb:eb
-----BEGIN CERTIFICATE-----
MIIDLTCCAhWgAwIBAgIBATANBgkqhkiG9w0BAQsFADAqMQswCQYDVQQGEwJHQjEb
MBkGA1UEAwwST3BlblJEQVAgdGVzdCByb290MB4XDTE4MDQyMTE3MjQ0MVoXDTI4
MDExODE3MjQ0MVowODELMAkGA1UEBhMCR0IxKTAnBgNVBAMMIE9wZW5SREFQIHRl
c3QgY2xpZW50IGNlcnRpZmljYXRlMIIBIjANBgkqhkiG9w0BAQEFAAOCAQ8AMIIB
CgKCAQEAtnanET5YMcWLLbS/rBqp9w0ili9X9vFALC9UblI1YvvDQ4uanylqvi+s
4QFI3byRaHN/tOPiQUUy/OEoKqlnj9snD3TwBSxvmOgZyofULJ05LTu/E3Jfe8oo
6cto0heDTo4SgBNdchqfj5VH3igjuZmpeX4Q/9yGfn9qXon02BVThfygLhGPtdBX
VCGWm/ulLTqXUk4ZjCCJIApJtCl33GrTe5sVPi494/cdXToHIme/jK8PSJouVMqW
gq5SttGqmCqfGlPQA17FVVUwzGLmVKUvu09RDWRNHRHAusPzqW4+gQHTVJf9zQqD
x9CtugCriPdIR+wdobS3eZthuenbNQIDAQABo1AwTjAfBgNVHSMEGDAWgBSMfpbw
K0P2ZUDfkWTrDxYAvQ04DzAJBgNVHRMEAjAAMAsGA1UdDwQEAwIHgDATBgNVHSUE
DDAKBggrBgEFBQcDAjANBgkqhkiG9w0BAQsFAAOCAQEArZouKB7GopVRU7v5U8wf
PeXfOsXydB5WKk9iZBtcEsIRvC5Q7kjoW0D4F15Jr96zizLaQjPXHTkvKZOVek43
rcv2HroYwFUH8VsCaAglZ01BRFzAxtZd5SbTMPbwoM3NKhjbXFkbed8pM+T1KAj8
m39kdCcBXOnt7ze5EHC3+SIIdgJjQ5QGxiFE4n5aeM5ehvkN7jo9tUIR1IPtMrWB
2mT5SjvpILMYcE1XEe1OuJiIAyqxBpbzDdqSWg9jHfe3A54PfMhcjPQBrghYRwJa
RLbJ28L6rmFtT5BtZy9mM64yck+5imwGg+MucUXuJzcOXZU5fn+amhnymCqAtU3r
6w==
-----END CERTIFICATE-----
